; ModuleID = '44/933.c'
source_filename = "44/933.c"
target datalayout = "e-m:e-p270:32:32-p271:32:32-p272:64:64-i64:64-f80:128-n8:16:32:64-S128"
target triple = "x86_64-pc-linux-gnu"

@.str = private unnamed_addr constant [3 x i8] c"%d\00", align 1
@.str.1 = private unnamed_addr constant [4 x i8] c"%d\0A\00", align 1

; Function Attrs: noinline nounwind uwtable
define dso_local i32 @re(i32 %0) #0 {
  %2 = alloca i32, align 4
  %3 = alloca i32, align 4
  %4 = alloca i32, align 4
  store i32 %0, i32* %3, align 4
  %5 = load i32, i32* %3, align 4
  %6 = sdiv i32 %5, 10000
  %7 = load i32, i32* %3, align 4
  %8 = srem i32 %7, 10000
  %9 = sdiv i32 %8, 1000
  %10 = mul nsw i32 %9, 10
  %11 = add nsw i32 %6, %10
  %12 = load i32, i32* %3, align 4
  %13 = srem i32 %12, 1000
  %14 = sdiv i32 %13, 100
  %15 = mul nsw i32 %14, 100
  %16 = add nsw i32 %11, %15
  %17 = load i32, i32* %3, align 4
  %18 = srem i32 %17, 100
  %19 = sdiv i32 %18, 10
  %20 = mul nsw i32 %19, 1000
  %21 = add nsw i32 %16, %20
  %22 = load i32, i32* %3, align 4
  %23 = srem i32 %22, 10
  %24 = mul nsw i32 %23, 10000
  %25 = add nsw i32 %21, %24
  store i32 %25, i32* %4, align 4
  %26 = load i32, i32* %4, align 4
  %27 = srem i32 %26, 10
  %28 = icmp ne i32 %27, 0
  br i1 %28, label %29, label %31

29:                                               ; preds = %1
  %30 = load i32, i32* %4, align 4
  store i32 %30, i32* %2, align 4
  br label %55

31:                                               ; preds = %1
  %32 = load i32, i32* %4, align 4
  %33 = srem i32 %32, 100
  %34 = icmp ne i32 %33, 0
  br i1 %34, label %35, label %38

35:                                               ; preds = %31
  %36 = load i32, i32* %4, align 4
  %37 = sdiv i32 %36, 10
  store i32 %37, i32* %2, align 4
  br label %55

38:                                               ; preds = %31
  %39 = load i32, i32* %4, align 4
  %40 = srem i32 %39, 1000
  %41 = icmp ne i32 %40, 0
  br i1 %41, label %42, label %45

42:                                               ; preds = %38
  %43 = load i32, i32* %4, align 4
  %44 = sdiv i32 %43, 100
  store i32 %44, i32* %2, align 4
  br label %55

45:                                               ; preds = %38
  %46 = load i32, i32* %4, align 4
  %47 = srem i32 %46, 10000
  %48 = icmp ne i32 %47, 0
  br i1 %48, label %49, label %52

49:                                               ; preds = %45
  %50 = load i32, i32* %4, align 4
  %51 = sdiv i32 %50, 1000
  store i32 %51, i32* %2, align 4
  br label %55

52:                                               ; preds = %45
  %53 = load i32, i32* %4, align 4
  %54 = sdiv i32 %53, 10000
  store i32 %54, i32* %2, align 4
  br label %55

55:                                               ; preds = %52, %49, %42, %35, %29
  %56 = load i32, i32* %2, align 4
  ret i32 %56
}

; Function Attrs: noinline nounwind uwtable
define dso_local i32 @reverse(i32 %0) #0 {
  %2 = alloca i32, align 4
  %3 = alloca i32, align 4
  store i32 %0, i32* %3, align 4
  %4 = load i32, i32* %3, align 4
  %5 = icmp slt i32 %4, 0
  br i1 %5, label %6, label %11

6:                                                ; preds = %1
  %7 = load i32, i32* %3, align 4
  %8 = sub nsw i32 0, %7
  %9 = call i32 @re(i32 %8)
  %10 = sub nsw i32 0, %9
  store i32 %10, i32* %2, align 4
  br label %14

11:                                               ; preds = %1
  %12 = load i32, i32* %3, align 4
  %13 = call i32 @re(i32 %12)
  store i32 %13, i32* %2, align 4
  br label %14

14:                                               ; preds = %11, %6
  %15 = load i32, i32* %2, align 4
  ret i32 %15
}

; Function Attrs: noinline nounwind uwtable
define dso_local void @main() #0 {
  %1 = alloca [6 x i32], align 16
  %2 = alloca i32, align 4
  store i32 0, i32* %2, align 4
  br label %3

3:                                                ; preds = %19, %0
  %4 = load i32, i32* %2, align 4
  %5 = icmp slt i32 %4, 6
  br i1 %5, label %6, label %22

6:                                                ; preds = %3
  %7 = load i32, i32* %2, align 4
  %8 = sext i32 %7 to i64
  %9 = getelementptr inbounds [6 x i32], [6 x i32]* %1, i64 0, i64 %8
  %10 = call i32 (i8*, ...) @__isoc99_scanf(i8* getelementptr inbounds ([3 x i8], [3 x i8]* @.str, i64 0, i64 0), i32* %9)
  %11 = load i32, i32* %2, align 4
  %12 = sext i32 %11 to i64
  %13 = getelementptr inbounds [6 x i32], [6 x i32]* %1, i64 0, i64 %12
  %14 = load i32, i32* %13, align 4
  %15 = call i32 @reverse(i32 %14)
  %16 = load i32, i32* %2, align 4
  %17 = sext i32 %16 to i64
  %18 = getelementptr inbounds [6 x i32], [6 x i32]* %1, i64 0, i64 %17
  store i32 %15, i32* %18, align 4
  br label %19

19:                                               ; preds = %6
  %20 = load i32, i32* %2, align 4
  %21 = add nsw i32 %20, 1
  store i32 %21, i32* %2, align 4
  br label %3

22:                                               ; preds = %3
  store i32 0, i32* %2, align 4
  br label %23

23:                                               ; preds = %32, %22
  %24 = load i32, i32* %2, align 4
  %25 = icmp slt i32 %24, 6
  br i1 %25, label %26, label %35

26:                                               ; preds = %23
  %27 = load i32, i32* %2, align 4
  %28 = sext i32 %27 to i64
  %29 = getelementptr inbounds [6 x i32], [6 x i32]* %1, i64 0, i64 %28
  %30 = load i32, i32* %29, align 4
  %31 = call i32 (i8*, ...) @printf(i8* getelementptr inbounds ([4 x i8], [4 x i8]* @.str.1, i64 0, i64 0), i32 %30)
  br label %32

32:                                               ; preds = %26
  %33 = load i32, i32* %2, align 4
  %34 = add nsw i32 %33, 1
  store i32 %34, i32* %2, align 4
  br label %23

35:                                               ; preds = %23
  ret void
}

declare dso_local i32 @__isoc99_scanf(i8*, ...) #1

declare dso_local i32 @printf(i8*, ...) #1


!llvm.module.flags = !{!0}
!llvm.ident = !{!1}

!0 = !{i32 1, !"wchar_size", i32 4}
!1 = !{!"clang version 10.0.0-4ubuntu1 "}
